; Function Attrs: mustprogress nofree norecurse nosync nounwind willreturn memory(argmem: read) uwtable
define dso_local range(i64 28, 41) i64 @fdt_header_size(ptr noundef readonly captures(none) %0) local_unnamed_addr #0 {
  %2 = getelementptr inbounds nuw i8, ptr %0, i64 20
  %3 = load i8, ptr %2, align 1
  %4 = zext i8 %3 to i32
  %5 = shl nuw i32 %4, 24
  %6 = getelementptr inbounds nuw i8, ptr %0, i64 21
  %7 = load i8, ptr %6, align 1
  %8 = zext i8 %7 to i32
  %9 = shl nuw nsw i32 %8, 16
  %10 = or disjoint i32 %9, %5
  %11 = getelementptr inbounds nuw i8, ptr %0, i64 22
  %12 = load i8, ptr %11, align 1
  %13 = zext i8 %12 to i32
  %14 = shl nuw nsw i32 %13, 8
  %15 = or disjoint i32 %10, %14
  %16 = getelementptr inbounds nuw i8, ptr %0, i64 23
  %17 = load i8, ptr %16, align 1
  %18 = zext i8 %17 to i32
  %19 = or disjoint i32 %15, %18
  %20 = icmp ult i32 %19, 2
  br i1 %20, label %fdt_header_size_.exit, label %21

21:                                               ; preds = %1
  %22 = icmp eq i32 %19, 2
  br i1 %22, label %fdt_header_size_.exit, label %23

23:                                               ; preds = %21
  %24 = icmp ult i32 %19, 4
  br i1 %24, label %fdt_header_size_.exit, label %25

25:                                               ; preds = %23
  %26 = icmp ult i32 %19, 17
  %..i = select i1 %26, i64 36, i64 40
  br label %fdt_header_size_.exit

fdt_header_size_.exit:                            ; preds = %1, %21, %23, %25
  %.0.i = phi i64 [ 28, %1 ], [ 32, %21 ], [ 36, %23 ], [ %..i, %25 ]
  ret i64 %.0.i
}